target datalayout = "e-m:e-p270:32:32-p271:32:32-p272:64:64-i64:64-i128:128-f80:128-n8:16:32:64-S128"
target triple = "x86_64-pc-linux-gnu"

%struct.Extra_BitMat_t_ = type { ptr, i32, i32, i32, i32, i32, i32, i32 }

; Function Attrs: nounwind uwtable
define void @Extra_BitMatrixDelete2(ptr noundef %0, i32 noundef %1, i32 noundef %2) #0 {
  %4 = alloca ptr, align 8
  %5 = alloca i32, align 4
  %6 = alloca i32, align 4
  store ptr %0, ptr %4, align 8
  store i32 %1, ptr %5, align 4
  store i32 %2, ptr %6, align 4
  %7 = load ptr, ptr %4, align 8
  %8 = getelementptr inbounds %struct.Extra_BitMat_t_, ptr %7, i32 0, i32 7
  %9 = load i32, ptr %8, align 8
  %10 = add nsw i32 %9, 1
  store i32 %10, ptr %8, align 8
  %11 = load i32, ptr %5, align 4
  %12 = load i32, ptr %6, align 4
  %13 = icmp sgt i32 %11, %12
  br i1 %13, label %14, label %38

14:                                               ; preds = %3
  %15 = load i32, ptr %6, align 4
  %16 = load ptr, ptr %4, align 8
  %17 = getelementptr inbounds %struct.Extra_BitMat_t_, ptr %16, i32 0, i32 4
  %18 = load i32, ptr %17, align 4
  %19 = and i32 %15, %18
  %20 = shl i32 1, %19
  %21 = xor i32 %20, -1
  %22 = load ptr, ptr %4, align 8
  %23 = getelementptr inbounds %struct.Extra_BitMat_t_, ptr %22, i32 0, i32 0
  %24 = load ptr, ptr %23, align 8
  %25 = load i32, ptr %5, align 4
  %26 = sext i32 %25 to i64
  %27 = getelementptr inbounds ptr, ptr %24, i64 %26
  %28 = load ptr, ptr %27, align 8
  %29 = load i32, ptr %6, align 4
  %30 = load ptr, ptr %4, align 8
  %31 = getelementptr inbounds %struct.Extra_BitMat_t_, ptr %30, i32 0, i32 3
  %32 = load i32, ptr %31, align 8
  %33 = ashr i32 %29, %32
  %34 = sext i32 %33 to i64
  %35 = getelementptr inbounds i32, ptr %28, i64 %34
  %36 = load i32, ptr %35, align 4
  %37 = and i32 %36, %21
  store i32 %37, ptr %35, align 4
  br label %62

38:                                               ; preds = %3
  %39 = load i32, ptr %5, align 4
  %40 = load ptr, ptr %4, align 8
  %41 = getelementptr inbounds %struct.Extra_BitMat_t_, ptr %40, i32 0, i32 4
  %42 = load i32, ptr %41, align 4
  %43 = and i32 %39, %42
  %44 = shl i32 1, %43
  %45 = xor i32 %44, -1
  %46 = load ptr, ptr %4, align 8
  %47 = getelementptr inbounds %struct.Extra_BitMat_t_, ptr %46, i32 0, i32 0
  %48 = load ptr, ptr %47, align 8
  %49 = load i32, ptr %6, align 4
  %50 = sext i32 %49 to i64
  %51 = getelementptr inbounds ptr, ptr %48, i64 %50
  %52 = load ptr, ptr %51, align 8
  %53 = load i32, ptr %5, align 4
  %54 = load ptr, ptr %4, align 8
  %55 = getelementptr inbounds %struct.Extra_BitMat_t_, ptr %54, i32 0, i32 3
  %56 = load i32, ptr %55, align 8
  %57 = ashr i32 %53, %56
  %58 = sext i32 %57 to i64
  %59 = getelementptr inbounds i32, ptr %52, i64 %58
  %60 = load i32, ptr %59, align 4
  %61 = and i32 %60, %45
  store i32 %61, ptr %59, align 4
  br label %62

62:                                               ; preds = %38, %14
  ret void
}