; Function Attrs: mustprogress nofree norecurse nosync nounwind willreturn memory(readwrite, inaccessiblemem: none) uwtable
define void @Extra_BitMatrixDelete2(ptr noundef captures(none) %0, i32 noundef %1, i32 noundef %2) local_unnamed_addr #3 {
  %4 = getelementptr inbounds nuw i8, ptr %0, i64 32
  %5 = load i32, ptr %4, align 8
  %6 = add nsw i32 %5, 1
  store i32 %6, ptr %4, align 8
  %7 = getelementptr inbounds nuw i8, ptr %0, i64 20
  %8 = load i32, ptr %7, align 4
  %9 = load ptr, ptr %0, align 8
  %10 = getelementptr inbounds nuw i8, ptr %0, i64 16
  %11 = load i32, ptr %10, align 8
  %. = tail call i32 @llvm.smin.i32(i32 %1, i32 %2)
  %.26 = tail call i32 @llvm.smax.i32(i32 %1, i32 %2)
  %12 = and i32 %8, %.
  %13 = shl nuw i32 1, %12
  %14 = xor i32 %13, -1
  %15 = sext i32 %.26 to i64
  %16 = getelementptr inbounds ptr, ptr %9, i64 %15
  %17 = load ptr, ptr %16, align 8
  %18 = ashr i32 %., %11
  %19 = sext i32 %18 to i64
  %20 = getelementptr inbounds i32, ptr %17, i64 %19
  %21 = load i32, ptr %20, align 4
  %22 = and i32 %21, %14
  store i32 %22, ptr %20, align 4
  ret void
}